; Function Attrs: nounwind uwtable
define dso_local range(i64 0, 2) i64 @has_any_column_privilege_id_id(ptr noundef captures(none) %0) local_unnamed_addr #0 {
  %2 = alloca i8, align 1
  %3 = getelementptr inbounds nuw i8, ptr %0, i64 32
  %4 = load i64, ptr %3, align 8
  %5 = trunc i64 %4 to i32
  %6 = getelementptr inbounds nuw i8, ptr %0, i64 48
  %7 = load i64, ptr %6, align 8
  %8 = trunc i64 %7 to i32
  %9 = getelementptr inbounds nuw i8, ptr %0, i64 64
  %10 = load i64, ptr %9, align 8
  %11 = inttoptr i64 %10 to ptr
  %12 = tail call ptr @pg_detoast_datum_packed(ptr noundef %11) #14
  call void @llvm.lifetime.start.p0(i64 1, ptr nonnull %2) #14
  store i8 0, ptr %2, align 1
  %13 = tail call fastcc i64 @convert_any_priv_string(ptr noundef %12, ptr noundef nonnull @convert_column_priv_string.column_priv_map)
  %14 = call i32 @pg_class_aclcheck_ext(i32 noundef %8, i32 noundef %5, i64 noundef %13, ptr noundef nonnull %2) #14
  %.not = icmp eq i32 %14, 0
  br i1 %.not, label %26, label %15

15:                                               ; preds = %1
  %16 = load i8, ptr %2, align 1, !range !27, !noundef !28
  %17 = trunc nuw i8 %16 to i1
  br i1 %17, label %18, label %20

18:                                               ; preds = %15
  %19 = getelementptr inbounds nuw i8, ptr %0, i64 28
  store i8 1, ptr %19, align 4
  br label %29

20:                                               ; preds = %15
  %21 = call i32 @pg_attribute_aclcheck_all_ext(i32 noundef %8, i32 noundef %5, i64 noundef %13, i32 noundef 1, ptr noundef nonnull %2) #14
  %22 = load i8, ptr %2, align 1, !range !27, !noundef !28
  %23 = trunc nuw i8 %22 to i1
  br i1 %23, label %24, label %26

24:                                               ; preds = %20
  %25 = getelementptr inbounds nuw i8, ptr %0, i64 28
  store i8 1, ptr %25, align 4
  br label %29

26:                                               ; preds = %20, %1
  %.0 = phi i32 [ %21, %20 ], [ 0, %1 ]
  %27 = icmp eq i32 %.0, 0
  %28 = zext i1 %27 to i64
  br label %29

29:                                               ; preds = %26, %24, %18
  %.014 = phi i64 [ 0, %18 ], [ 0, %24 ], [ %28, %26 ]
  call void @llvm.lifetime.end.p0(i64 1, ptr nonnull %2) #14
  ret i64 %.014
}